; Function Attrs: mustprogress uwtable
define dso_local void @_ZNK11V3HierBlock19commandArgsFileNameB5cxx11Eb(ptr dead_on_unwind noalias writable sret(%"class.std::__cxx11::basic_string") align 8 %0, ptr nocapture noundef nonnull readonly align 8 dereferenceable(144) %1, i1 noundef zeroext %2) #3 align 2 personality ptr @__gxx_personality_v0 {
  %4 = alloca %"class.std::__cxx11::basic_string", align 8
  %5 = alloca %"class.std::__cxx11::basic_string", align 8
  call void @llvm.lifetime.start.p0(i64 32, ptr nonnull %4)
  %6 = load ptr, ptr %1, align 8, !noalias !38
  %7 = load ptr, ptr %6, align 8, !noalias !38
  %8 = getelementptr inbounds i8, ptr %7, i64 56
  %9 = load ptr, ptr %8, align 8, !noalias !38
  call void %9(ptr dead_on_unwind nonnull writable sret(%"class.std::__cxx11::basic_string") align 8 %4, ptr noundef nonnull align 8 dereferenceable(257) %6), !noalias !38
  %10 = invoke noundef nonnull align 8 dereferenceable(32) ptr @_ZNSt7__cxx1112basic_stringIcSt11char_traitsIcESaIcEE6insertEmPKc(ptr noundef nonnull align 8 dereferenceable(32) %4, i64 noundef 0, ptr noundef nonnull @.str.16)
          to label %_ZNK11V3HierBlock10hierPrefixB5cxx11Ev.exit unwind label %11, !noalias !38

common.resume:                                    ; preds = %14, %11
  %.sink = phi ptr [ %5, %14 ], [ %4, %11 ]
  %common.resume.op = phi { ptr, i32 } [ %15, %14 ], [ %12, %11 ]
  call void @_ZNSt7__cxx1112basic_stringIcSt11char_traitsIcESaIcEED1Ev(ptr noundef nonnull align 8 dereferenceable(32) %.sink) #19
  resume { ptr, i32 } %common.resume.op

11:                                               ; preds = %3
  %12 = landingpad { ptr, i32 }
          cleanup
  br label %common.resume

_ZNK11V3HierBlock10hierPrefixB5cxx11Ev.exit:      ; preds = %3
  call void @_ZNSt7__cxx1112basic_stringIcSt11char_traitsIcESaIcEEC1EOS4_(ptr noundef nonnull align 8 dereferenceable(32) %5, ptr noundef nonnull align 8 dereferenceable(32) %10) #19
  call void @_ZNSt7__cxx1112basic_stringIcSt11char_traitsIcESaIcEED1Ev(ptr noundef nonnull align 8 dereferenceable(32) %4) #19
  call void @llvm.lifetime.end.p0(i64 32, ptr nonnull %4)
  invoke fastcc void @_ZL25V3HierCommandArgsFileNameRKNSt7__cxx1112basic_stringIcSt11char_traitsIcESaIcEEEb(ptr dead_on_unwind noalias writable align 8 %0, ptr noundef nonnull align 8 dereferenceable(32) %5, i1 noundef zeroext %2)
          to label %13 unwind label %14

13:                                               ; preds = %_ZNK11V3HierBlock10hierPrefixB5cxx11Ev.exit
  call void @_ZNSt7__cxx1112basic_stringIcSt11char_traitsIcESaIcEED1Ev(ptr noundef nonnull align 8 dereferenceable(32) %5) #19
  ret void

14:                                               ; preds = %_ZNK11V3HierBlock10hierPrefixB5cxx11Ev.exit
  %15 = landingpad { ptr, i32 }
          cleanup
  br label %common.resume
}